target datalayout = "e-m:e-p270:32:32-p271:32:32-p272:64:64-i64:64-i128:128-f80:128-n8:16:32:64-S128"
target triple = "x86_64-pc-linux-gnu"

%class.RecVolumes5 = type { %class.Array.8, ptr, ptr, ptr, ptr, i64, i32, i32, i32, ptr, i32, i32, ptr }
%class.Array.8 = type { ptr, i64, i64, i64 }
%struct.RecRSThreadData = type { ptr, ptr, i8, i32, ptr, i64, i64 }

; Function Attrs: mustprogress uwtable
define void @_ZN11RecVolumes513ProcessAreaRSEP15RecRSThreadData(ptr noundef nonnull align 8 dereferenceable(112) %0, ptr noundef %1) #0 align 2 {
  %3 = alloca ptr, align 8
  %4 = alloca ptr, align 8
  %5 = alloca i32, align 4
  %6 = alloca i32, align 4
  store ptr %0, ptr %3, align 8
  store ptr %1, ptr %4, align 8
  %7 = load ptr, ptr %3, align 8
  %8 = load ptr, ptr %4, align 8
  %9 = getelementptr inbounds %struct.RecRSThreadData, ptr %8, i32 0, i32 2
  %10 = load i8, ptr %9, align 8
  %11 = trunc i8 %10 to i1
  br i1 %11, label %12, label %15

12:                                               ; preds = %2
  %13 = getelementptr inbounds %class.RecVolumes5, ptr %7, i32 0, i32 7
  %14 = load i32, ptr %13, align 4
  br label %18

15:                                               ; preds = %2
  %16 = getelementptr inbounds %class.RecVolumes5, ptr %7, i32 0, i32 10
  %17 = load i32, ptr %16, align 8
  br label %18

18:                                               ; preds = %15, %12
  %19 = phi i32 [ %14, %12 ], [ %17, %15 ]
  store i32 %19, ptr %5, align 4
  store i32 0, ptr %6, align 4
  br label %20

20:                                               ; preds = %54, %18
  %21 = load i32, ptr %6, align 4
  %22 = load i32, ptr %5, align 4
  %23 = icmp ult i32 %21, %22
  br i1 %23, label %24, label %57

24:                                               ; preds = %20
  %25 = load ptr, ptr %4, align 8
  %26 = getelementptr inbounds %struct.RecRSThreadData, ptr %25, i32 0, i32 1
  %27 = load ptr, ptr %26, align 8
  %28 = load ptr, ptr %4, align 8
  %29 = getelementptr inbounds %struct.RecRSThreadData, ptr %28, i32 0, i32 3
  %30 = load i32, ptr %29, align 4
  %31 = load i32, ptr %6, align 4
  %32 = load ptr, ptr %4, align 8
  %33 = getelementptr inbounds %struct.RecRSThreadData, ptr %32, i32 0, i32 4
  %34 = load ptr, ptr %33, align 8
  %35 = load ptr, ptr %4, align 8
  %36 = getelementptr inbounds %struct.RecRSThreadData, ptr %35, i32 0, i32 5
  %37 = load i64, ptr %36, align 8
  %38 = getelementptr inbounds i8, ptr %34, i64 %37
  %39 = getelementptr inbounds %class.RecVolumes5, ptr %7, i32 0, i32 4
  %40 = load ptr, ptr %39, align 8
  %41 = load i32, ptr %6, align 4
  %42 = zext i32 %41 to i64
  %43 = getelementptr inbounds %class.RecVolumes5, ptr %7, i32 0, i32 5
  %44 = load i64, ptr %43, align 8
  %45 = mul i64 %42, %44
  %46 = getelementptr inbounds i8, ptr %40, i64 %45
  %47 = load ptr, ptr %4, align 8
  %48 = getelementptr inbounds %struct.RecRSThreadData, ptr %47, i32 0, i32 5
  %49 = load i64, ptr %48, align 8
  %50 = getelementptr inbounds i8, ptr %46, i64 %49
  %51 = load ptr, ptr %4, align 8
  %52 = getelementptr inbounds %struct.RecRSThreadData, ptr %51, i32 0, i32 6
  %53 = load i64, ptr %52, align 8
  call void @_ZN9RSCoder169UpdateECCEjjPKhPhm(ptr noundef nonnull align 8 dereferenceable(64) %27, i32 noundef %30, i32 noundef %31, ptr noundef %38, ptr noundef %50, i64 noundef %53)
  br label %54

54:                                               ; preds = %24
  %55 = load i32, ptr %6, align 4
  %56 = add i32 %55, 1
  store i32 %56, ptr %6, align 4
  br label %20, !llvm.loop !38

57:                                               ; preds = %20
  ret void
}