; Function Attrs: mustprogress uwtable
define void @_ZN11RecVolumes513ProcessAreaRSEP15RecRSThreadData(ptr nocapture noundef nonnull readonly align 8 dereferenceable(112) %0, ptr nocapture noundef readonly %1) local_unnamed_addr #0 align 2 {
  %3 = getelementptr inbounds i8, ptr %1, i64 16
  %4 = load i8, ptr %3, align 8
  %5 = trunc i8 %4 to i1
  %.in.v = select i1 %5, i64 76, i64 96
  %.in = getelementptr inbounds i8, ptr %0, i64 %.in.v
  %6 = load i32, ptr %.in, align 4
  %.not = icmp eq i32 %6, 0
  br i1 %.not, label %._crit_edge, label %.lr.ph

.lr.ph:                                           ; preds = %2
  %7 = getelementptr inbounds i8, ptr %1, i64 8
  %8 = getelementptr inbounds i8, ptr %1, i64 20
  %9 = getelementptr inbounds i8, ptr %1, i64 24
  %10 = getelementptr inbounds i8, ptr %1, i64 32
  %11 = getelementptr inbounds i8, ptr %0, i64 56
  %12 = getelementptr inbounds i8, ptr %0, i64 64
  %13 = getelementptr inbounds i8, ptr %1, i64 40
  %wide.trip.count = zext i32 %6 to i64
  br label %14

14:                                               ; preds = %.lr.ph, %14
  %indvars.iv = phi i64 [ 0, %.lr.ph ], [ %indvars.iv.next, %14 ]
  %15 = load ptr, ptr %7, align 8
  %16 = load i32, ptr %8, align 4
  %17 = load ptr, ptr %9, align 8
  %18 = load i64, ptr %10, align 8
  %19 = getelementptr inbounds i8, ptr %17, i64 %18
  %20 = load ptr, ptr %11, align 8
  %21 = load i64, ptr %12, align 8
  %22 = mul i64 %21, %indvars.iv
  %23 = getelementptr inbounds i8, ptr %20, i64 %22
  %24 = getelementptr inbounds i8, ptr %23, i64 %18
  %25 = load i64, ptr %13, align 8
  %26 = trunc nuw i64 %indvars.iv to i32
  tail call void @_ZN9RSCoder169UpdateECCEjjPKhPhm(ptr noundef nonnull align 8 dereferenceable(64) %15, i32 noundef %16, i32 noundef %26, ptr noundef %19, ptr noundef %24, i64 noundef %25)
  %indvars.iv.next = add nuw nsw i64 %indvars.iv, 1
  %exitcond.not = icmp eq i64 %indvars.iv.next, %wide.trip.count
  br i1 %exitcond.not, label %._crit_edge, label %14, !llvm.loop !35

._crit_edge:                                      ; preds = %14, %2
  ret void
}